target datalayout = "e-m:e-p270:32:32-p271:32:32-p272:64:64-i64:64-i128:128-f80:128-n8:16:32:64-S128"
target triple = "x86_64-pc-linux-gnu"

%struct.DdGen = type { ptr, i32, i32, %union.anon.0, %struct.anon.3, ptr }
%union.anon.0 = type { %struct.anon }
%struct.anon = type { ptr, double }
%struct.anon.3 = type { i32, ptr }
%struct.anon.2 = type { i32 }

; Function Attrs: nounwind uwtable
define i32 @Cudd_NextNode(ptr noundef %0, ptr noundef %1) #0 {
  %3 = alloca i32, align 4
  %4 = alloca ptr, align 8
  %5 = alloca ptr, align 8
  store ptr %0, ptr %4, align 8
  store ptr %1, ptr %5, align 8
  %6 = load ptr, ptr %4, align 8
  %7 = getelementptr inbounds %struct.DdGen, ptr %6, i32 0, i32 4
  %8 = getelementptr inbounds %struct.anon.3, ptr %7, i32 0, i32 0
  %9 = load i32, ptr %8, align 8
  %10 = add nsw i32 %9, 1
  store i32 %10, ptr %8, align 8
  %11 = load ptr, ptr %4, align 8
  %12 = getelementptr inbounds %struct.DdGen, ptr %11, i32 0, i32 4
  %13 = getelementptr inbounds %struct.anon.3, ptr %12, i32 0, i32 0
  %14 = load i32, ptr %13, align 8
  %15 = load ptr, ptr %4, align 8
  %16 = getelementptr inbounds %struct.DdGen, ptr %15, i32 0, i32 3
  %17 = getelementptr inbounds %struct.anon.2, ptr %16, i32 0, i32 0
  %18 = load i32, ptr %17, align 8
  %19 = icmp slt i32 %14, %18
  br i1 %19, label %20, label %38

20:                                               ; preds = %2
  %21 = load ptr, ptr %4, align 8
  %22 = getelementptr inbounds %struct.DdGen, ptr %21, i32 0, i32 4
  %23 = getelementptr inbounds %struct.anon.3, ptr %22, i32 0, i32 1
  %24 = load ptr, ptr %23, align 8
  %25 = load ptr, ptr %4, align 8
  %26 = getelementptr inbounds %struct.DdGen, ptr %25, i32 0, i32 4
  %27 = getelementptr inbounds %struct.anon.3, ptr %26, i32 0, i32 0
  %28 = load i32, ptr %27, align 8
  %29 = sext i32 %28 to i64
  %30 = getelementptr inbounds ptr, ptr %24, i64 %29
  %31 = load ptr, ptr %30, align 8
  %32 = load ptr, ptr %4, align 8
  %33 = getelementptr inbounds %struct.DdGen, ptr %32, i32 0, i32 5
  store ptr %31, ptr %33, align 8
  %34 = load ptr, ptr %4, align 8
  %35 = getelementptr inbounds %struct.DdGen, ptr %34, i32 0, i32 5
  %36 = load ptr, ptr %35, align 8
  %37 = load ptr, ptr %5, align 8
  store ptr %36, ptr %37, align 8
  store i32 1, ptr %3, align 4
  br label %41

38:                                               ; preds = %2
  %39 = load ptr, ptr %4, align 8
  %40 = getelementptr inbounds %struct.DdGen, ptr %39, i32 0, i32 2
  store i32 0, ptr %40, align 4
  store i32 0, ptr %3, align 4
  br label %41

41:                                               ; preds = %38, %20
  %42 = load i32, ptr %3, align 4
  ret i32 %42
}