; Function Attrs: mustprogress nofree norecurse nosync nounwind willreturn memory(read, argmem: readwrite, inaccessiblemem: none) uwtable
define range(i32 0, 2) i32 @Cudd_NextNode(ptr noundef captures(none) %0, ptr noundef writeonly captures(none) %1) local_unnamed_addr #12 {
  %3 = getelementptr inbounds nuw i8, ptr %0, i64 32
  %4 = load i32, ptr %3, align 8
  %5 = add nsw i32 %4, 1
  store i32 %5, ptr %3, align 8
  %6 = getelementptr inbounds nuw i8, ptr %0, i64 16
  %7 = load i32, ptr %6, align 8
  %8 = icmp slt i32 %5, %7
  br i1 %8, label %9, label %16

9:                                                ; preds = %2
  %10 = getelementptr inbounds nuw i8, ptr %0, i64 40
  %11 = load ptr, ptr %10, align 8
  %12 = sext i32 %5 to i64
  %13 = getelementptr inbounds ptr, ptr %11, i64 %12
  %14 = load ptr, ptr %13, align 8
  %15 = getelementptr inbounds nuw i8, ptr %0, i64 48
  store ptr %14, ptr %15, align 8
  store ptr %14, ptr %1, align 8
  br label %18

16:                                               ; preds = %2
  %17 = getelementptr inbounds nuw i8, ptr %0, i64 12
  store i32 0, ptr %17, align 4
  br label %18

18:                                               ; preds = %16, %9
  %.0 = phi i32 [ 1, %9 ], [ 0, %16 ]
  ret i32 %.0
}